target datalayout = "e-m:e-p270:32:32-p271:32:32-p272:64:64-i64:64-i128:128-f80:128-n8:16:32:64-S128"
target triple = "x86_64-pc-linux-gnu"

%struct.CVodeMemRec = type { double, ptr, ptr, i32, i32, i32, double, double, ptr, i32, ptr, ptr, i32, ptr, i32, i32, double, double, ptr, i32, i32, i32, ptr, ptr, ptr, i32, i32, ptr, ptr, ptr, i32, double, i32, i32, double, ptr, ptr, i32, ptr, ptr, i32, i32, i32, double, ptr, ptr, [13 x ptr], ptr, ptr, ptr, ptr, ptr, [13 x ptr], ptr, ptr, ptr, ptr, [13 x ptr], ptr, ptr, ptr, ptr, ptr, i32, [13 x ptr], ptr, ptr, ptr, ptr, ptr, i32, double, i32, i32, i32, i32, i32, double, double, double, double, double, double, double, double, [14 x double], [6 x double], [13 x double], double, double, double, double, double, double, double, double, double, double, double, i32, ptr, i32, i64, i32, i32, i32, i32, i32, double, double, double, i64, i64, i64, i64, i64, i64, i64, i64, i64, ptr, i64, i64, ptr, i64, i64, i64, i64, i64, i64, i32, i64, i64, i64, i64, i64, i64, double, double, double, ptr, ptr, ptr, ptr, ptr, i32, i32, i64, double, double, double, i32, double, i32, i32, i32, i32, i32, i32, i32, i32, i32, i32, i32, i32, i32, i32, i32, i32, ptr, ptr, ptr, i32, [6 x [4 x double]], i32, i64, ptr, i32, ptr, ptr, double, double, double, ptr, ptr, ptr, double, double, i32, i32, i64, ptr, i32, i32, ptr, i32 }
%struct.CVSpilsMemRec = type { i32, i32, i32, double, double, double, double, i32, i64, i64, i64, i64, i64, i64, i64, ptr, ptr, ptr, ptr, ptr, ptr, ptr, ptr, ptr, i32, ptr, ptr, i64 }

@.str = private unnamed_addr constant [8 x i8] c"CVSPBCG\00", align 1
@.str.11 = private unnamed_addr constant [13 x i8] c"CVSpbcgSetup\00", align 1
@.str.12 = private unnamed_addr constant [68 x i8] c"The preconditioner setup routine failed in an unrecoverable manner.\00", align 1

; Function Attrs: nounwind uwtable
define internal i32 @CVSpbcgSetup(ptr noundef %0, i32 noundef %1, ptr noundef %2, ptr noundef %3, ptr noundef %4, ptr noundef %5, ptr noundef %6, ptr noundef %7) #0 {
  %9 = alloca ptr, align 8
  %10 = alloca i32, align 4
  %11 = alloca ptr, align 8
  %12 = alloca ptr, align 8
  %13 = alloca ptr, align 8
  %14 = alloca ptr, align 8
  %15 = alloca ptr, align 8
  %16 = alloca ptr, align 8
  %17 = alloca i32, align 4
  %18 = alloca i32, align 4
  %19 = alloca double, align 8
  %20 = alloca i32, align 4
  %21 = alloca ptr, align 8
  store ptr %0, ptr %9, align 8, !tbaa !9
  store i32 %1, ptr %10, align 4, !tbaa !7
  store ptr %2, ptr %11, align 8, !tbaa !62
  store ptr %3, ptr %12, align 8, !tbaa !62
  store ptr %4, ptr %13, align 8, !tbaa !63
  store ptr %5, ptr %14, align 8, !tbaa !62
  store ptr %6, ptr %15, align 8, !tbaa !62
  store ptr %7, ptr %16, align 8, !tbaa !62
  call void @llvm.lifetime.start.p0(i64 4, ptr %17) #5
  call void @llvm.lifetime.start.p0(i64 4, ptr %18) #5
  call void @llvm.lifetime.start.p0(i64 8, ptr %19) #5
  call void @llvm.lifetime.start.p0(i64 4, ptr %20) #5
  call void @llvm.lifetime.start.p0(i64 8, ptr %21) #5
  %22 = load ptr, ptr %9, align 8, !tbaa !9
  %23 = getelementptr inbounds nuw %struct.CVodeMemRec, ptr %22, i32 0, i32 144
  %24 = load ptr, ptr %23, align 8, !tbaa !52
  store ptr %24, ptr %21, align 8, !tbaa !31
  %25 = load ptr, ptr %9, align 8, !tbaa !9
  %26 = getelementptr inbounds nuw %struct.CVodeMemRec, ptr %25, i32 0, i32 89
  %27 = load double, ptr %26, align 8, !tbaa !64
  %28 = load ptr, ptr %9, align 8, !tbaa !9
  %29 = getelementptr inbounds nuw %struct.CVodeMemRec, ptr %28, i32 0, i32 90
  %30 = load double, ptr %29, align 8, !tbaa !65
  %31 = fdiv double %27, %30
  %32 = fsub double %31, 1.000000e+00
  %33 = call double @SUNRabs(double noundef %32)
  store double %33, ptr %19, align 8, !tbaa !66
  %34 = load ptr, ptr %9, align 8, !tbaa !9
  %35 = getelementptr inbounds nuw %struct.CVodeMemRec, ptr %34, i32 0, i32 111
  %36 = load i64, ptr %35, align 8, !tbaa !67
  %37 = icmp eq i64 %36, 0
  br i1 %37, label %56, label %38

38:                                               ; preds = %8
  %39 = load ptr, ptr %9, align 8, !tbaa !9
  %40 = getelementptr inbounds nuw %struct.CVodeMemRec, ptr %39, i32 0, i32 111
  %41 = load i64, ptr %40, align 8, !tbaa !67
  %42 = load ptr, ptr %21, align 8, !tbaa !31
  %43 = getelementptr inbounds nuw %struct.CVSpilsMemRec, ptr %42, i32 0, i32 8
  %44 = load i64, ptr %43, align 8, !tbaa !53
  %45 = add nsw i64 %44, 50
  %46 = icmp sgt i64 %41, %45
  br i1 %46, label %56, label %47

47:                                               ; preds = %38
  %48 = load i32, ptr %10, align 4, !tbaa !7
  %49 = icmp eq i32 %48, 1
  br i1 %49, label %50, label %53

50:                                               ; preds = %47
  %51 = load double, ptr %19, align 8, !tbaa !66
  %52 = fcmp olt double %51, 2.000000e-01
  br i1 %52, label %56, label %53

53:                                               ; preds = %50, %47
  %54 = load i32, ptr %10, align 4, !tbaa !7
  %55 = icmp eq i32 %54, 2
  br label %56

56:                                               ; preds = %53, %50, %38, %8
  %57 = phi i1 [ true, %50 ], [ true, %38 ], [ true, %8 ], [ %55, %53 ]
  %58 = zext i1 %57 to i32
  store i32 %58, ptr %17, align 4, !tbaa !7
  %59 = load i32, ptr %17, align 4, !tbaa !7
  %60 = load ptr, ptr %13, align 8, !tbaa !63
  store i32 %59, ptr %60, align 4, !tbaa !7
  %61 = load i32, ptr %17, align 4, !tbaa !7
  %62 = icmp ne i32 %61, 0
  %63 = xor i1 %62, true
  %64 = zext i1 %63 to i32
  store i32 %64, ptr %18, align 4, !tbaa !7
  %65 = load ptr, ptr %21, align 8, !tbaa !31
  %66 = getelementptr inbounds nuw %struct.CVSpilsMemRec, ptr %65, i32 0, i32 20
  %67 = load ptr, ptr %66, align 8, !tbaa !40
  %68 = load ptr, ptr %9, align 8, !tbaa !9
  %69 = getelementptr inbounds nuw %struct.CVodeMemRec, ptr %68, i32 0, i32 83
  %70 = load double, ptr %69, align 8, !tbaa !68
  %71 = load ptr, ptr %11, align 8, !tbaa !62
  %72 = load ptr, ptr %12, align 8, !tbaa !62
  %73 = load i32, ptr %18, align 4, !tbaa !7
  %74 = load ptr, ptr %13, align 8, !tbaa !63
  %75 = load ptr, ptr %9, align 8, !tbaa !9
  %76 = getelementptr inbounds nuw %struct.CVodeMemRec, ptr %75, i32 0, i32 89
  %77 = load double, ptr %76, align 8, !tbaa !64
  %78 = load ptr, ptr %21, align 8, !tbaa !31
  %79 = getelementptr inbounds nuw %struct.CVSpilsMemRec, ptr %78, i32 0, i32 23
  %80 = load ptr, ptr %79, align 8, !tbaa !44
  %81 = load ptr, ptr %14, align 8, !tbaa !62
  %82 = load ptr, ptr %15, align 8, !tbaa !62
  %83 = load ptr, ptr %16, align 8, !tbaa !62
  %84 = call i32 %67(double noundef %70, ptr noundef %71, ptr noundef %72, i32 noundef %73, ptr noundef %74, double noundef %77, ptr noundef %80, ptr noundef %81, ptr noundef %82, ptr noundef %83)
  store i32 %84, ptr %20, align 4, !tbaa !7
  %85 = load i32, ptr %20, align 4, !tbaa !7
  %86 = icmp slt i32 %85, 0
  br i1 %86, label %87, label %91

87:                                               ; preds = %56
  %88 = load ptr, ptr %9, align 8, !tbaa !9
  call void (ptr, i32, ptr, ptr, ptr, ...) @cvProcessError(ptr noundef %88, i32 noundef -4, ptr noundef @.str, ptr noundef @.str.11, ptr noundef @.str.12)
  %89 = load ptr, ptr %21, align 8, !tbaa !31
  %90 = getelementptr inbounds nuw %struct.CVSpilsMemRec, ptr %89, i32 0, i32 27
  store i64 -4, ptr %90, align 8, !tbaa !46
  br label %91

91:                                               ; preds = %87, %56
  %92 = load i32, ptr %20, align 4, !tbaa !7
  %93 = icmp sgt i32 %92, 0
  br i1 %93, label %94, label %97

94:                                               ; preds = %91
  %95 = load ptr, ptr %21, align 8, !tbaa !31
  %96 = getelementptr inbounds nuw %struct.CVSpilsMemRec, ptr %95, i32 0, i32 27
  store i64 5, ptr %96, align 8, !tbaa !46
  br label %97

97:                                               ; preds = %94, %91
  %98 = load i32, ptr %17, align 4, !tbaa !7
  %99 = icmp ne i32 %98, 0
  br i1 %99, label %100, label %102

100:                                              ; preds = %97
  %101 = load ptr, ptr %13, align 8, !tbaa !63
  store i32 1, ptr %101, align 4, !tbaa !7
  br label %102

102:                                              ; preds = %100, %97
  %103 = load ptr, ptr %13, align 8, !tbaa !63
  %104 = load i32, ptr %103, align 4, !tbaa !7
  %105 = icmp ne i32 %104, 0
  br i1 %105, label %106, label %116

106:                                              ; preds = %102
  %107 = load ptr, ptr %21, align 8, !tbaa !31
  %108 = getelementptr inbounds nuw %struct.CVSpilsMemRec, ptr %107, i32 0, i32 9
  %109 = load i64, ptr %108, align 8, !tbaa !57
  %110 = add nsw i64 %109, 1
  store i64 %110, ptr %108, align 8, !tbaa !57
  %111 = load ptr, ptr %9, align 8, !tbaa !9
  %112 = getelementptr inbounds nuw %struct.CVodeMemRec, ptr %111, i32 0, i32 111
  %113 = load i64, ptr %112, align 8, !tbaa !67
  %114 = load ptr, ptr %21, align 8, !tbaa !31
  %115 = getelementptr inbounds nuw %struct.CVSpilsMemRec, ptr %114, i32 0, i32 8
  store i64 %113, ptr %115, align 8, !tbaa !53
  br label %116

116:                                              ; preds = %106, %102
  %117 = load ptr, ptr %21, align 8, !tbaa !31
  %118 = getelementptr inbounds nuw %struct.CVSpilsMemRec, ptr %117, i32 0, i32 27
  store i64 0, ptr %118, align 8, !tbaa !46
  %119 = load i32, ptr %20, align 4, !tbaa !7
  call void @llvm.lifetime.end.p0(i64 8, ptr %21) #5
  call void @llvm.lifetime.end.p0(i64 4, ptr %20) #5
  call void @llvm.lifetime.end.p0(i64 8, ptr %19) #5
  call void @llvm.lifetime.end.p0(i64 4, ptr %18) #5
  call void @llvm.lifetime.end.p0(i64 4, ptr %17) #5
  ret i32 %119
}